target datalayout = "e-m:e-p270:32:32-p271:32:32-p272:64:64-i64:64-i128:128-f80:128-n8:16:32:64-S128"
target triple = "x86_64-pc-linux-gnu"

%struct.licenses_t = type { ptr, i32, i32, i32, i8, i32, i32, i64 }

; Function Attrs: nounwind uwtable
define internal i32 @_foreach_reservation_license(ptr noundef %0, ptr noundef %1) #0 {
  %3 = alloca ptr, align 8
  %4 = alloca ptr, align 8
  %5 = alloca ptr, align 8
  %6 = alloca ptr, align 8
  store ptr %0, ptr %3, align 8
  store ptr %1, ptr %4, align 8
  call void @llvm.lifetime.start.p0(i64 8, ptr %5) #10
  %7 = load ptr, ptr %3, align 8
  store ptr %7, ptr %5, align 8
  call void @llvm.lifetime.start.p0(i64 8, ptr %6) #10
  %8 = load ptr, ptr %4, align 8
  store ptr %8, ptr %6, align 8
  %9 = load ptr, ptr %5, align 8
  %10 = getelementptr inbounds nuw %struct.licenses_t, ptr %9, i32 0, i32 0
  %11 = load ptr, ptr %10, align 8
  %12 = load ptr, ptr %6, align 8
  %13 = getelementptr inbounds nuw %struct.licenses_t, ptr %12, i32 0, i32 0
  %14 = load ptr, ptr %13, align 8
  %15 = call i32 @xstrcmp(ptr noundef %11, ptr noundef %14)
  %16 = icmp ne i32 %15, 0
  br i1 %16, label %25, label %17

17:                                               ; preds = %2
  %18 = load ptr, ptr %5, align 8
  %19 = getelementptr inbounds nuw %struct.licenses_t, ptr %18, i32 0, i32 1
  %20 = load i32, ptr %19, align 8
  %21 = load ptr, ptr %6, align 8
  %22 = getelementptr inbounds nuw %struct.licenses_t, ptr %21, i32 0, i32 3
  %23 = load i32, ptr %22, align 8
  %24 = add i32 %23, %20
  store i32 %24, ptr %22, align 8
  br label %25

25:                                               ; preds = %17, %2
  call void @llvm.lifetime.end.p0(i64 8, ptr %6) #10
  call void @llvm.lifetime.end.p0(i64 8, ptr %5) #10
  ret i32 0
}