; Function Attrs: nounwind uwtable
define internal noundef i32 @_foreach_reservation_license(ptr noundef readonly captures(none) %0, ptr noundef captures(none) %1) #0 {
  %3 = load ptr, ptr %0, align 8
  %4 = load ptr, ptr %1, align 8
  %5 = tail call i32 @xstrcmp(ptr noundef %3, ptr noundef %4) #19
  %.not = icmp eq i32 %5, 0
  br i1 %.not, label %6, label %12

6:                                                ; preds = %2
  %7 = getelementptr inbounds nuw i8, ptr %0, i64 8
  %8 = load i32, ptr %7, align 8
  %9 = getelementptr inbounds nuw i8, ptr %1, i64 16
  %10 = load i32, ptr %9, align 8
  %11 = add i32 %10, %8
  store i32 %11, ptr %9, align 8
  br label %12

12:                                               ; preds = %6, %2
  ret i32 0
}